; Function Attrs: nounwind uwtable
define dso_local noundef ptr @ExecGetUpdateNewTuple(ptr noundef readonly captures(none) %0, ptr noundef %1, ptr noundef %2) local_unnamed_addr #0 {
  %4 = alloca i8, align 1
  %5 = getelementptr inbounds nuw i8, ptr %0, i64 64
  %6 = load ptr, ptr %5, align 8
  %7 = getelementptr inbounds nuw i8, ptr %6, i64 128
  %8 = load ptr, ptr %7, align 8
  %9 = getelementptr inbounds nuw i8, ptr %8, i64 24
  store ptr %1, ptr %9, align 8
  %10 = getelementptr inbounds nuw i8, ptr %8, i64 8
  store ptr %2, ptr %10, align 8
  %11 = load ptr, ptr %7, align 8
  %12 = getelementptr inbounds nuw i8, ptr %6, i64 8
  %13 = getelementptr inbounds nuw i8, ptr %6, i64 24
  %14 = load ptr, ptr %13, align 8
  call void @llvm.lifetime.start.p0(i64 1, ptr nonnull %4) #9
  %15 = getelementptr inbounds nuw i8, ptr %14, i64 8
  %16 = load ptr, ptr %15, align 8
  %17 = getelementptr inbounds nuw i8, ptr %16, i64 24
  %18 = load ptr, ptr %17, align 8
  tail call void %18(ptr noundef %14) #9
  %19 = getelementptr inbounds nuw i8, ptr %11, i64 40
  %20 = load ptr, ptr %19, align 8
  %21 = load ptr, ptr @CurrentMemoryContext, align 8
  store ptr %20, ptr @CurrentMemoryContext, align 8
  %22 = getelementptr inbounds nuw i8, ptr %6, i64 40
  %23 = load ptr, ptr %22, align 8
  %24 = call i64 %23(ptr noundef nonnull %12, ptr noundef %11, ptr noundef nonnull %4) #9
  store ptr %21, ptr @CurrentMemoryContext, align 8
  %25 = getelementptr inbounds nuw i8, ptr %14, i64 4
  %26 = load i16, ptr %25, align 4
  %27 = and i16 %26, -3
  store i16 %27, ptr %25, align 4
  %28 = getelementptr inbounds nuw i8, ptr %14, i64 16
  %29 = load ptr, ptr %28, align 8
  %30 = load i32, ptr %29, align 8
  %31 = trunc i32 %30 to i16
  %32 = getelementptr inbounds nuw i8, ptr %14, i64 6
  store i16 %31, ptr %32, align 2
  call void @llvm.lifetime.end.p0(i64 1, ptr nonnull %4) #9
  ret ptr %14
}